target datalayout = "e-m:e-p270:32:32-p271:32:32-p272:64:64-i64:64-i128:128-f80:128-n8:16:32:64-S128"
target triple = "x86_64-pc-linux-gnu"

%struct.ExprEvalStep = type { i64, ptr, ptr, %union.anon }
%union.anon = type { %struct.anon.23 }
%struct.anon.23 = type { ptr, ptr, i32, i32, ptr, ptr }
%struct.ExprContext = type { i32, ptr, ptr, ptr, ptr, ptr, ptr, ptr, ptr, ptr, i64, i8, i64, i8, ptr, ptr, ptr, ptr }
%struct.anon.11 = type { i32, i32 }
%struct.ParamExecData = type { ptr, i64, i8 }

; Function Attrs: nounwind uwtable
define dso_local void @ExecEvalParamExec(ptr noundef %0, ptr noundef %1, ptr noundef %2) #0 {
  %4 = alloca ptr, align 8
  %5 = alloca ptr, align 8
  %6 = alloca ptr, align 8
  %7 = alloca ptr, align 8
  store ptr %0, ptr %4, align 8
  store ptr %1, ptr %5, align 8
  store ptr %2, ptr %6, align 8
  call void @llvm.lifetime.start.p0(i64 8, ptr %7) #11
  %8 = load ptr, ptr %6, align 8
  %9 = getelementptr inbounds nuw %struct.ExprContext, ptr %8, i32 0, i32 6
  %10 = load ptr, ptr %9, align 8
  %11 = load ptr, ptr %5, align 8
  %12 = getelementptr inbounds nuw %struct.ExprEvalStep, ptr %11, i32 0, i32 3
  %13 = getelementptr inbounds nuw %struct.anon.11, ptr %12, i32 0, i32 0
  %14 = load i32, ptr %13, align 8
  %15 = sext i32 %14 to i64
  %16 = getelementptr inbounds %struct.ParamExecData, ptr %10, i64 %15
  store ptr %16, ptr %7, align 8
  %17 = load ptr, ptr %7, align 8
  %18 = getelementptr inbounds nuw %struct.ParamExecData, ptr %17, i32 0, i32 0
  %19 = load ptr, ptr %18, align 8
  %20 = icmp ne ptr %19, null
  %21 = zext i1 %20 to i32
  %22 = icmp ne i32 %21, 0
  %23 = zext i1 %22 to i32
  %24 = sext i32 %23 to i64
  %25 = call i64 @llvm.expect.i64(i64 %24, i64 0)
  %26 = icmp ne i64 %25, 0
  br i1 %26, label %27, label %32

27:                                               ; preds = %3
  %28 = load ptr, ptr %7, align 8
  %29 = getelementptr inbounds nuw %struct.ParamExecData, ptr %28, i32 0, i32 0
  %30 = load ptr, ptr %29, align 8
  %31 = load ptr, ptr %6, align 8
  call void @ExecSetParamPlan(ptr noundef %30, ptr noundef %31)
  br label %32

32:                                               ; preds = %27, %3
  %33 = load ptr, ptr %7, align 8
  %34 = getelementptr inbounds nuw %struct.ParamExecData, ptr %33, i32 0, i32 1
  %35 = load i64, ptr %34, align 8
  %36 = load ptr, ptr %5, align 8
  %37 = getelementptr inbounds nuw %struct.ExprEvalStep, ptr %36, i32 0, i32 1
  %38 = load ptr, ptr %37, align 8
  store i64 %35, ptr %38, align 8
  %39 = load ptr, ptr %7, align 8
  %40 = getelementptr inbounds nuw %struct.ParamExecData, ptr %39, i32 0, i32 2
  %41 = load i8, ptr %40, align 8, !range !7, !noundef !8
  %42 = trunc i8 %41 to i1
  %43 = load ptr, ptr %5, align 8
  %44 = getelementptr inbounds nuw %struct.ExprEvalStep, ptr %43, i32 0, i32 2
  %45 = load ptr, ptr %44, align 8
  %46 = zext i1 %42 to i8
  store i8 %46, ptr %45, align 1
  call void @llvm.lifetime.end.p0(i64 8, ptr %7) #11
  ret void
}