; Function Attrs: nounwind uwtable
define dso_local void @ExecEvalParamExec(ptr noundef readnone captures(none) %0, ptr noundef readonly captures(none) %1, ptr noundef %2) local_unnamed_addr #0 {
  %4 = getelementptr inbounds nuw i8, ptr %2, i64 48
  %5 = load ptr, ptr %4, align 8
  %6 = getelementptr inbounds nuw i8, ptr %1, i64 24
  %7 = load i32, ptr %6, align 8
  %8 = sext i32 %7 to i64
  %9 = getelementptr inbounds %struct.ParamExecData, ptr %5, i64 %8
  %10 = load ptr, ptr %9, align 8
  %.not = icmp eq ptr %10, null
  br i1 %.not, label %12, label %11, !prof !15

11:                                               ; preds = %3
  tail call void @ExecSetParamPlan(ptr noundef nonnull %10, ptr noundef nonnull %2) #18
  br label %12

12:                                               ; preds = %11, %3
  %13 = getelementptr inbounds nuw i8, ptr %9, i64 8
  %14 = load i64, ptr %13, align 8
  %15 = getelementptr inbounds nuw i8, ptr %1, i64 8
  %16 = load ptr, ptr %15, align 8
  store i64 %14, ptr %16, align 8
  %17 = getelementptr inbounds nuw i8, ptr %9, i64 16
  %18 = load i8, ptr %17, align 8, !range !8, !noundef !9
  %19 = getelementptr inbounds nuw i8, ptr %1, i64 16
  %20 = load ptr, ptr %19, align 8
  store i8 %18, ptr %20, align 1
  ret void
}